target datalayout = "e-m:e-p270:32:32-p271:32:32-p272:64:64-i64:64-i128:128-f80:128-n8:16:32:64-S128"
target triple = "x86_64-pc-linux-gnu"

%struct.Vec_Int_t_ = type { i32, i32, ptr }
%struct.Vec_Wec_t_ = type { i32, i32, ptr }
%struct.timespec = type { i64, i64 }

@.str.34 = private unnamed_addr constant [54 x i8] c"Computed %d equivalence classes with %d item pairs.  \00", align 1
@.str.35 = private unnamed_addr constant [5 x i8] c"Time\00", align 1
@.str.36 = private unnamed_addr constant [9 x i8] c" %4d : {\00", align 1
@.str.37 = private unnamed_addr constant [4 x i8] c" %d\00", align 1
@.str.38 = private unnamed_addr constant [4 x i8] c" }\0A\00", align 1
@.str.49 = private unnamed_addr constant [5 x i8] c"%s =\00", align 1
@.str.50 = private unnamed_addr constant [11 x i8] c"%9.2f sec\0A\00", align 1

; Function Attrs: inlinehint nounwind uwtable
define internal void @Vec_WecErase(ptr noundef %0) #3 {
  %2 = alloca ptr, align 8
  %3 = alloca i32, align 4
  store ptr %0, ptr %2, align 8, !tbaa !102
  call void @llvm.lifetime.start.p0(i64 4, ptr %3) #14
  store i32 0, ptr %3, align 4, !tbaa !10
  br label %4

4:                                                ; preds = %38, %1
  %5 = load i32, ptr %3, align 4, !tbaa !10
  %6 = load ptr, ptr %2, align 8, !tbaa !102
  %7 = getelementptr inbounds nuw %struct.Vec_Wec_t_, ptr %6, i32 0, i32 0
  %8 = load i32, ptr %7, align 8, !tbaa !110
  %9 = icmp slt i32 %5, %8
  br i1 %9, label %10, label %41

10:                                               ; preds = %4
  %11 = load ptr, ptr %2, align 8, !tbaa !102
  %12 = getelementptr inbounds nuw %struct.Vec_Wec_t_, ptr %11, i32 0, i32 2
  %13 = load ptr, ptr %12, align 8, !tbaa !111
  %14 = load i32, ptr %3, align 4, !tbaa !10
  %15 = sext i32 %14 to i64
  %16 = getelementptr inbounds %struct.Vec_Int_t_, ptr %13, i64 %15
  %17 = getelementptr inbounds nuw %struct.Vec_Int_t_, ptr %16, i32 0, i32 2
  %18 = load ptr, ptr %17, align 8, !tbaa !52
  %19 = icmp ne ptr %18, null
  br i1 %19, label %20, label %36

20:                                               ; preds = %10
  %21 = load ptr, ptr %2, align 8, !tbaa !102
  %22 = getelementptr inbounds nuw %struct.Vec_Wec_t_, ptr %21, i32 0, i32 2
  %23 = load ptr, ptr %22, align 8, !tbaa !111
  %24 = load i32, ptr %3, align 4, !tbaa !10
  %25 = sext i32 %24 to i64
  %26 = getelementptr inbounds %struct.Vec_Int_t_, ptr %23, i64 %25
  %27 = getelementptr inbounds nuw %struct.Vec_Int_t_, ptr %26, i32 0, i32 2
  %28 = load ptr, ptr %27, align 8, !tbaa !52
  call void @free(ptr noundef %28) #14
  %29 = load ptr, ptr %2, align 8, !tbaa !102
  %30 = getelementptr inbounds nuw %struct.Vec_Wec_t_, ptr %29, i32 0, i32 2
  %31 = load ptr, ptr %30, align 8, !tbaa !111
  %32 = load i32, ptr %3, align 4, !tbaa !10
  %33 = sext i32 %32 to i64
  %34 = getelementptr inbounds %struct.Vec_Int_t_, ptr %31, i64 %33
  %35 = getelementptr inbounds nuw %struct.Vec_Int_t_, ptr %34, i32 0, i32 2
  store ptr null, ptr %35, align 8, !tbaa !52
  br label %37

36:                                               ; preds = %10
  br label %37

37:                                               ; preds = %36, %20
  br label %38

38:                                               ; preds = %37
  %39 = load i32, ptr %3, align 4, !tbaa !10
  %40 = add nsw i32 %39, 1
  store i32 %40, ptr %3, align 4, !tbaa !10
  br label %4, !llvm.loop !229

41:                                               ; preds = %4
  %42 = load ptr, ptr %2, align 8, !tbaa !102
  %43 = getelementptr inbounds nuw %struct.Vec_Wec_t_, ptr %42, i32 0, i32 2
  %44 = load ptr, ptr %43, align 8, !tbaa !111
  %45 = icmp ne ptr %44, null
  br i1 %45, label %46, label %52

46:                                               ; preds = %41
  %47 = load ptr, ptr %2, align 8, !tbaa !102
  %48 = getelementptr inbounds nuw %struct.Vec_Wec_t_, ptr %47, i32 0, i32 2
  %49 = load ptr, ptr %48, align 8, !tbaa !111
  call void @free(ptr noundef %49) #14
  %50 = load ptr, ptr %2, align 8, !tbaa !102
  %51 = getelementptr inbounds nuw %struct.Vec_Wec_t_, ptr %50, i32 0, i32 2
  store ptr null, ptr %51, align 8, !tbaa !111
  br label %53

52:                                               ; preds = %41
  br label %53

53:                                               ; preds = %52, %46
  %54 = load ptr, ptr %2, align 8, !tbaa !102
  %55 = getelementptr inbounds nuw %struct.Vec_Wec_t_, ptr %54, i32 0, i32 1
  store i32 0, ptr %55, align 4, !tbaa !108
  %56 = load ptr, ptr %2, align 8, !tbaa !102
  %57 = getelementptr inbounds nuw %struct.Vec_Wec_t_, ptr %56, i32 0, i32 0
  store i32 0, ptr %57, align 8, !tbaa !110
  call void @llvm.lifetime.end.p0(i64 4, ptr %3) #14
  ret void
}

; Function Attrs: inlinehint nounwind uwtable
define internal i32 @Vec_IntEntry(ptr noundef %0, i32 noundef %1) #3 {
  %3 = alloca ptr, align 8
  %4 = alloca i32, align 4
  store ptr %0, ptr %3, align 8, !tbaa !44
  store i32 %1, ptr %4, align 4, !tbaa !10
  %5 = load ptr, ptr %3, align 8, !tbaa !44
  %6 = getelementptr inbounds nuw %struct.Vec_Int_t_, ptr %5, i32 0, i32 2
  %7 = load ptr, ptr %6, align 8, !tbaa !52
  %8 = load i32, ptr %4, align 4, !tbaa !10
  %9 = sext i32 %8 to i64
  %10 = getelementptr inbounds i32, ptr %7, i64 %9
  %11 = load i32, ptr %10, align 4, !tbaa !10
  ret i32 %11
}

; Function Attrs: inlinehint nounwind uwtable
define internal i32 @Vec_IntSize(ptr noundef %0) #3 {
  %2 = alloca ptr, align 8
  store ptr %0, ptr %2, align 8, !tbaa !44
  %3 = load ptr, ptr %2, align 8, !tbaa !44
  %4 = getelementptr inbounds nuw %struct.Vec_Int_t_, ptr %3, i32 0, i32 1
  %5 = load i32, ptr %4, align 4, !tbaa !50
  ret i32 %5
}

; Function Attrs: inlinehint nounwind uwtable
define internal ptr @Vec_WecEntry(ptr noundef %0, i32 noundef %1) #3 {
  %3 = alloca ptr, align 8
  %4 = alloca i32, align 4
  store ptr %0, ptr %3, align 8, !tbaa !102
  store i32 %1, ptr %4, align 4, !tbaa !10
  %5 = load ptr, ptr %3, align 8, !tbaa !102
  %6 = getelementptr inbounds nuw %struct.Vec_Wec_t_, ptr %5, i32 0, i32 2
  %7 = load ptr, ptr %6, align 8, !tbaa !111
  %8 = load i32, ptr %4, align 4, !tbaa !10
  %9 = sext i32 %8 to i64
  %10 = getelementptr inbounds %struct.Vec_Int_t_, ptr %7, i64 %9
  ret ptr %10
}

; Function Attrs: inlinehint nounwind uwtable
define internal void @Vec_WecFree(ptr noundef %0) #3 {
  %2 = alloca ptr, align 8
  store ptr %0, ptr %2, align 8, !tbaa !102
  %3 = load ptr, ptr %2, align 8, !tbaa !102
  call void @Vec_WecErase(ptr noundef %3)
  %4 = load ptr, ptr %2, align 8, !tbaa !102
  %5 = icmp ne ptr %4, null
  br i1 %5, label %6, label %8

6:                                                ; preds = %1
  %7 = load ptr, ptr %2, align 8, !tbaa !102
  call void @free(ptr noundef %7) #14
  store ptr null, ptr %2, align 8, !tbaa !102
  br label %9

8:                                                ; preds = %1
  br label %9

9:                                                ; preds = %8, %6
  ret void
}

; Function Attrs: inlinehint nounwind uwtable
define internal void @Vec_WecPrint(ptr noundef %0, i32 noundef %1) #3 {
  %3 = alloca ptr, align 8
  %4 = alloca i32, align 4
  %5 = alloca ptr, align 8
  %6 = alloca i32, align 4
  %7 = alloca i32, align 4
  %8 = alloca i32, align 4
  store ptr %0, ptr %3, align 8, !tbaa !102
  store i32 %1, ptr %4, align 4, !tbaa !10
  call void @llvm.lifetime.start.p0(i64 8, ptr %5) #14
  call void @llvm.lifetime.start.p0(i64 4, ptr %6) #14
  call void @llvm.lifetime.start.p0(i64 4, ptr %7) #14
  call void @llvm.lifetime.start.p0(i64 4, ptr %8) #14
  store i32 0, ptr %6, align 4, !tbaa !10
  br label %9

9:                                                ; preds = %50, %2
  %10 = load i32, ptr %6, align 4, !tbaa !10
  %11 = load ptr, ptr %3, align 8, !tbaa !102
  %12 = call i32 @Vec_WecSize(ptr noundef %11)
  %13 = icmp slt i32 %10, %12
  br i1 %13, label %14, label %18

14:                                               ; preds = %9
  %15 = load ptr, ptr %3, align 8, !tbaa !102
  %16 = load i32, ptr %6, align 4, !tbaa !10
  %17 = call ptr @Vec_WecEntry(ptr noundef %15, i32 noundef %16)
  store ptr %17, ptr %5, align 8, !tbaa !44
  br label %18

18:                                               ; preds = %14, %9
  %19 = phi i1 [ false, %9 ], [ true, %14 ]
  br i1 %19, label %20, label %53

20:                                               ; preds = %18
  %21 = load i32, ptr %4, align 4, !tbaa !10
  %22 = icmp ne i32 %21, 0
  br i1 %22, label %23, label %28

23:                                               ; preds = %20
  %24 = load ptr, ptr %5, align 8, !tbaa !44
  %25 = call i32 @Vec_IntSize(ptr noundef %24)
  %26 = icmp eq i32 %25, 1
  br i1 %26, label %27, label %28

27:                                               ; preds = %23
  br label %50

28:                                               ; preds = %23, %20
  %29 = load i32, ptr %6, align 4, !tbaa !10
  %30 = call i32 (ptr, ...) @printf(ptr noundef @.str.36, i32 noundef %29)
  store i32 0, ptr %7, align 4, !tbaa !10
  br label %31

31:                                               ; preds = %45, %28
  %32 = load i32, ptr %7, align 4, !tbaa !10
  %33 = load ptr, ptr %5, align 8, !tbaa !44
  %34 = call i32 @Vec_IntSize(ptr noundef %33)
  %35 = icmp slt i32 %32, %34
  br i1 %35, label %36, label %40

36:                                               ; preds = %31
  %37 = load ptr, ptr %5, align 8, !tbaa !44
  %38 = load i32, ptr %7, align 4, !tbaa !10
  %39 = call i32 @Vec_IntEntry(ptr noundef %37, i32 noundef %38)
  store i32 %39, ptr %8, align 4, !tbaa !10
  br label %40

40:                                               ; preds = %36, %31
  %41 = phi i1 [ false, %31 ], [ true, %36 ]
  br i1 %41, label %42, label %48

42:                                               ; preds = %40
  %43 = load i32, ptr %8, align 4, !tbaa !10
  %44 = call i32 (ptr, ...) @printf(ptr noundef @.str.37, i32 noundef %43)
  br label %45

45:                                               ; preds = %42
  %46 = load i32, ptr %7, align 4, !tbaa !10
  %47 = add nsw i32 %46, 1
  store i32 %47, ptr %7, align 4, !tbaa !10
  br label %31, !llvm.loop !114

48:                                               ; preds = %40
  %49 = call i32 (ptr, ...) @printf(ptr noundef @.str.38)
  br label %50

50:                                               ; preds = %48, %27
  %51 = load i32, ptr %6, align 4, !tbaa !10
  %52 = add nsw i32 %51, 1
  store i32 %52, ptr %6, align 4, !tbaa !10
  br label %9, !llvm.loop !115

53:                                               ; preds = %18
  call void @llvm.lifetime.end.p0(i64 4, ptr %8) #14
  call void @llvm.lifetime.end.p0(i64 4, ptr %7) #14
  call void @llvm.lifetime.end.p0(i64 4, ptr %6) #14
  call void @llvm.lifetime.end.p0(i64 8, ptr %5) #14
  ret void
}

; Function Attrs: inlinehint nounwind uwtable
define internal void @Abc_PrintTime(i32 noundef %0, ptr noundef %1, i64 noundef %2) #3 {
  %4 = alloca i32, align 4
  %5 = alloca ptr, align 8
  %6 = alloca i64, align 8
  store i32 %0, ptr %4, align 4, !tbaa !10
  store ptr %1, ptr %5, align 8, !tbaa !8
  store i64 %2, ptr %6, align 8, !tbaa !124
  %7 = load ptr, ptr %5, align 8, !tbaa !8
  call void (i32, ptr, ...) @Abc_Print(i32 noundef 1, ptr noundef @.str.49, ptr noundef %7)
  %8 = load i64, ptr %6, align 8, !tbaa !124
  %9 = sitofp i64 %8 to double
  %10 = fmul double 1.000000e+00, %9
  %11 = fdiv double %10, 1.000000e+06
  call void (i32, ptr, ...) @Abc_Print(i32 noundef 1, ptr noundef @.str.50, double noundef %11)
  ret void
}

; Function Attrs: nounwind uwtable
define i32 @Abc_NtkFinCountPairs(ptr noundef %0) #0 {
  %2 = alloca ptr, align 8
  %3 = alloca i32, align 4
  %4 = alloca i32, align 4
  %5 = alloca ptr, align 8
  store ptr %0, ptr %2, align 8, !tbaa !102
  call void @llvm.lifetime.start.p0(i64 4, ptr %3) #14
  call void @llvm.lifetime.start.p0(i64 4, ptr %4) #14
  store i32 0, ptr %4, align 4, !tbaa !10
  call void @llvm.lifetime.start.p0(i64 8, ptr %5) #14
  store i32 0, ptr %3, align 4, !tbaa !10
  br label %6

6:                                                ; preds = %23, %1
  %7 = load i32, ptr %3, align 4, !tbaa !10
  %8 = load ptr, ptr %2, align 8, !tbaa !102
  %9 = call i32 @Vec_WecSize(ptr noundef %8)
  %10 = icmp slt i32 %7, %9
  br i1 %10, label %11, label %15

11:                                               ; preds = %6
  %12 = load ptr, ptr %2, align 8, !tbaa !102
  %13 = load i32, ptr %3, align 4, !tbaa !10
  %14 = call ptr @Vec_WecEntry(ptr noundef %12, i32 noundef %13)
  store ptr %14, ptr %5, align 8, !tbaa !44
  br label %15

15:                                               ; preds = %11, %6
  %16 = phi i1 [ false, %6 ], [ true, %11 ]
  br i1 %16, label %17, label %26

17:                                               ; preds = %15
  %18 = load ptr, ptr %5, align 8, !tbaa !44
  %19 = call i32 @Vec_IntSize(ptr noundef %18)
  %20 = sub nsw i32 %19, 1
  %21 = load i32, ptr %4, align 4, !tbaa !10
  %22 = add nsw i32 %21, %20
  store i32 %22, ptr %4, align 4, !tbaa !10
  br label %23

23:                                               ; preds = %17
  %24 = load i32, ptr %3, align 4, !tbaa !10
  %25 = add nsw i32 %24, 1
  store i32 %25, ptr %3, align 4, !tbaa !10
  br label %6, !llvm.loop !218

26:                                               ; preds = %15
  %27 = load i32, ptr %4, align 4, !tbaa !10
  call void @llvm.lifetime.end.p0(i64 8, ptr %5) #14
  call void @llvm.lifetime.end.p0(i64 4, ptr %4) #14
  call void @llvm.lifetime.end.p0(i64 4, ptr %3) #14
  ret i32 %27
}

; Function Attrs: inlinehint nounwind uwtable
define internal i32 @Vec_WecSize(ptr noundef %0) #3 {
  %2 = alloca ptr, align 8
  store ptr %0, ptr %2, align 8, !tbaa !102
  %3 = load ptr, ptr %2, align 8, !tbaa !102
  %4 = getelementptr inbounds nuw %struct.Vec_Wec_t_, ptr %3, i32 0, i32 1
  %5 = load i32, ptr %4, align 4, !tbaa !108
  ret i32 %5
}

; Function Attrs: inlinehint nounwind uwtable
define internal i64 @Abc_Clock() #3 {
  %1 = alloca i64, align 8
  %2 = alloca %struct.timespec, align 8
  %3 = alloca i32, align 4
  %4 = alloca i64, align 8
  call void @llvm.lifetime.start.p0(i64 16, ptr %2) #14
  %5 = call i32 @clock_gettime(i32 noundef 1, ptr noundef %2) #14
  %6 = icmp slt i32 %5, 0
  br i1 %6, label %7, label %8

7:                                                ; preds = %0
  store i64 -1, ptr %1, align 8
  store i32 1, ptr %3, align 4
  br label %19

8:                                                ; preds = %0
  call void @llvm.lifetime.start.p0(i64 8, ptr %4) #14
  %9 = getelementptr inbounds nuw %struct.timespec, ptr %2, i32 0, i32 0
  %10 = load i64, ptr %9, align 8, !tbaa !236
  %11 = mul nsw i64 %10, 1000000
  store i64 %11, ptr %4, align 8, !tbaa !124
  %12 = getelementptr inbounds nuw %struct.timespec, ptr %2, i32 0, i32 1
  %13 = load i64, ptr %12, align 8, !tbaa !238
  %14 = mul nsw i64 %13, 1000000
  %15 = sdiv i64 %14, 1000000000
  %16 = load i64, ptr %4, align 8, !tbaa !124
  %17 = add nsw i64 %16, %15
  store i64 %17, ptr %4, align 8, !tbaa !124
  %18 = load i64, ptr %4, align 8, !tbaa !124
  store i64 %18, ptr %1, align 8
  store i32 1, ptr %3, align 4
  call void @llvm.lifetime.end.p0(i64 8, ptr %4) #14
  br label %19

19:                                               ; preds = %8, %7
  call void @llvm.lifetime.end.p0(i64 16, ptr %2) #14
  %20 = load i64, ptr %1, align 8
  ret i64 %20
}

; Function Attrs: nounwind uwtable
define void @Abc_NtkDetectClassesTest(ptr noundef %0, i32 noundef %1, i32 noundef %2, i32 noundef %3) #0 {
  %5 = alloca ptr, align 8
  %6 = alloca i32, align 4
  %7 = alloca i32, align 4
  %8 = alloca i32, align 4
  %9 = alloca ptr, align 8
  %10 = alloca i64, align 8
  store ptr %0, ptr %5, align 8, !tbaa !3
  store i32 %1, ptr %6, align 4, !tbaa !10
  store i32 %2, ptr %7, align 4, !tbaa !10
  store i32 %3, ptr %8, align 4, !tbaa !10
  call void @llvm.lifetime.start.p0(i64 8, ptr %9) #14
  call void @llvm.lifetime.start.p0(i64 8, ptr %10) #14
  %11 = call i64 @Abc_Clock()
  store i64 %11, ptr %10, align 8, !tbaa !124
  %12 = load i32, ptr %6, align 4, !tbaa !10
  %13 = icmp ne i32 %12, 0
  br i1 %13, label %14, label %16

14:                                               ; preds = %4
  %15 = load ptr, ptr %5, align 8, !tbaa !3
  call void @Abc_NtkFrameExtend(ptr noundef %15)
  br label %16

16:                                               ; preds = %14, %4
  %17 = load ptr, ptr %5, align 8, !tbaa !3
  %18 = load i32, ptr %7, align 4, !tbaa !10
  %19 = call ptr @Abc_NtkDetectFinClasses(ptr noundef %17, i32 noundef %18)
  store ptr %19, ptr %9, align 8, !tbaa !102
  %20 = load ptr, ptr %9, align 8, !tbaa !102
  %21 = call i32 @Vec_WecSize(ptr noundef %20)
  %22 = load ptr, ptr %9, align 8, !tbaa !102
  %23 = call i32 @Abc_NtkFinCountPairs(ptr noundef %22)
  %24 = call i32 (ptr, ...) @printf(ptr noundef @.str.34, i32 noundef %21, i32 noundef %23)
  %25 = call i64 @Abc_Clock()
  %26 = load i64, ptr %10, align 8, !tbaa !124
  %27 = sub nsw i64 %25, %26
  call void @Abc_PrintTime(i32 noundef 1, ptr noundef @.str.35, i64 noundef %27)
  %28 = load i32, ptr %8, align 4, !tbaa !10
  %29 = icmp ne i32 %28, 0
  br i1 %29, label %30, label %32

30:                                               ; preds = %16
  %31 = load ptr, ptr %9, align 8, !tbaa !102
  call void @Vec_WecPrint(ptr noundef %31, i32 noundef 1)
  br label %32

32:                                               ; preds = %30, %16
  %33 = load ptr, ptr %9, align 8, !tbaa !102
  call void @Vec_WecFree(ptr noundef %33)
  call void @llvm.lifetime.end.p0(i64 8, ptr %10) #14
  call void @llvm.lifetime.end.p0(i64 8, ptr %9) #14
  ret void
}