; Function Attrs: nounwind uwtable
define void @Abc_NtkDetectClassesTest(ptr noundef %0, i32 noundef %1, i32 noundef %2, i32 noundef %3) local_unnamed_addr #0 {
  %5 = alloca %struct.timespec, align 8
  %6 = alloca %struct.timespec, align 8
  call void @llvm.lifetime.start.p0(i64 16, ptr nonnull %6) #32
  %7 = call i32 @clock_gettime(i32 noundef 1, ptr noundef nonnull %6) #32
  %8 = icmp slt i32 %7, 0
  br i1 %8, label %Abc_Clock.exit, label %9

9:                                                ; preds = %4
  %10 = load i64, ptr %6, align 8, !tbaa !197
  %.neg17 = mul i64 %10, -1000000
  %11 = getelementptr inbounds nuw i8, ptr %6, i64 8
  %12 = load i64, ptr %11, align 8, !tbaa !199
  %.neg = sdiv i64 %12, -1000
  %.neg18 = add i64 %.neg, %.neg17
  br label %Abc_Clock.exit

Abc_Clock.exit:                                   ; preds = %4, %9
  %.0.i.neg = phi i64 [ %.neg18, %9 ], [ 1, %4 ]
  call void @llvm.lifetime.end.p0(i64 16, ptr nonnull %6) #32
  %.not = icmp eq i32 %1, 0
  br i1 %.not, label %14, label %13

13:                                               ; preds = %Abc_Clock.exit
  call void @Abc_NtkFrameExtend(ptr noundef %0)
  br label %14

14:                                               ; preds = %13, %Abc_Clock.exit
  %15 = call ptr @Abc_NtkDetectFinClasses(ptr noundef %0, i32 noundef %2)
  %16 = getelementptr i8, ptr %15, i64 4
  %.val = load i32, ptr %16, align 4, !tbaa !87
  %17 = icmp slt i32 %.val, 1
  br i1 %17, label %Abc_NtkFinCountPairs.exit, label %.lr.ph.i

.lr.ph.i:                                         ; preds = %14
  %18 = getelementptr i8, ptr %15, i64 8
  %.val9.i = load ptr, ptr %18, align 8, !tbaa !90
  %wide.trip.count.i = zext nneg i32 %.val to i64
  br label %19

19:                                               ; preds = %19, %.lr.ph.i
  %indvars.iv.i = phi i64 [ 0, %.lr.ph.i ], [ %indvars.iv.next.i, %19 ]
  %.0710.i = phi i32 [ 0, %.lr.ph.i ], [ %22, %19 ]
  %20 = getelementptr %struct.Vec_Int_t_, ptr %.val9.i, i64 %indvars.iv.i, i32 1
  %.val.i = load i32, ptr %20, align 4, !tbaa !37
  %21 = add i32 %.0710.i, -1
  %22 = add i32 %21, %.val.i
  %indvars.iv.next.i = add nuw nsw i64 %indvars.iv.i, 1
  %exitcond.not.i = icmp eq i64 %indvars.iv.next.i, %wide.trip.count.i
  br i1 %exitcond.not.i, label %Abc_NtkFinCountPairs.exit, label %19, !llvm.loop !192

Abc_NtkFinCountPairs.exit:                        ; preds = %19, %14
  %.07.lcssa.i = phi i32 [ 0, %14 ], [ %22, %19 ]
  %23 = call i32 (ptr, ...) @printf(ptr noundef nonnull dereferenceable(1) @.str.34, i32 noundef %.val, i32 noundef %.07.lcssa.i)
  call void @llvm.lifetime.start.p0(i64 16, ptr nonnull %5) #32
  %24 = call i32 @clock_gettime(i32 noundef 1, ptr noundef nonnull %5) #32
  %25 = icmp slt i32 %24, 0
  br i1 %25, label %Abc_Clock.exit11, label %26

26:                                               ; preds = %Abc_NtkFinCountPairs.exit
  %27 = load i64, ptr %5, align 8, !tbaa !197
  %28 = mul nsw i64 %27, 1000000
  %29 = getelementptr inbounds nuw i8, ptr %5, i64 8
  %30 = load i64, ptr %29, align 8, !tbaa !199
  %31 = sdiv i64 %30, 1000
  %32 = add nsw i64 %31, %28
  br label %Abc_Clock.exit11

Abc_Clock.exit11:                                 ; preds = %Abc_NtkFinCountPairs.exit, %26
  %.0.i10 = phi i64 [ %32, %26 ], [ -1, %Abc_NtkFinCountPairs.exit ]
  call void @llvm.lifetime.end.p0(i64 16, ptr nonnull %5) #32
  %33 = add i64 %.0.i10, %.0.i.neg
  call void (i32, ptr, ...) @Abc_Print(i32 poison, ptr noundef nonnull @.str.49, ptr noundef nonnull @.str.35)
  %34 = sitofp i64 %33 to double
  %35 = fdiv double %34, 1.000000e+06
  call void (i32, ptr, ...) @Abc_Print(i32 poison, ptr noundef nonnull @.str.50, double noundef %35)
  %.not9 = icmp eq i32 %3, 0
  %brmerge = or i1 %.not9, %17
  %.phi.trans.insert = getelementptr i8, ptr %15, i64 8
  %.pre.i.i.pre = load ptr, ptr %.phi.trans.insert, align 8, !tbaa !90
  br i1 %brmerge, label %Vec_WecPrint.exit, label %.lr.ph24.i

.lr.ph24.i:                                       ; preds = %Abc_Clock.exit11
  %36 = zext nneg i32 %.val to i64
  br label %.lr.ph24.split.i

.lr.ph24.split.i:                                 ; preds = %51, %.lr.ph24.i
  %indvars.iv27.i = phi i64 [ %indvars.iv.next28.i, %51 ], [ 0, %.lr.ph24.i ]
  %37 = getelementptr inbounds nuw %struct.Vec_Int_t_, ptr %.pre.i.i.pre, i64 %indvars.iv27.i
  %38 = getelementptr i8, ptr %37, i64 4
  %.val17.i = load i32, ptr %38, align 4, !tbaa !37
  %39 = icmp eq i32 %.val17.i, 1
  br i1 %39, label %51, label %40

40:                                               ; preds = %.lr.ph24.split.i
  %41 = trunc nuw nsw i64 %indvars.iv27.i to i32
  %42 = call i32 (ptr, ...) @printf(ptr noundef nonnull dereferenceable(1) @.str.36, i32 noundef %41)
  %.val1620.i = load i32, ptr %38, align 4, !tbaa !37
  %43 = icmp sgt i32 %.val1620.i, 0
  br i1 %43, label %.lr.ph.i12, label %.critedge2.i

.lr.ph.i12:                                       ; preds = %40
  %44 = getelementptr i8, ptr %37, i64 8
  br label %45

45:                                               ; preds = %45, %.lr.ph.i12
  %indvars.iv.i13 = phi i64 [ 0, %.lr.ph.i12 ], [ %indvars.iv.next.i15, %45 ]
  %.val.i14 = load ptr, ptr %44, align 8, !tbaa !36
  %46 = getelementptr inbounds nuw i32, ptr %.val.i14, i64 %indvars.iv.i13
  %47 = load i32, ptr %46, align 4, !tbaa !34
  %48 = call i32 (ptr, ...) @printf(ptr noundef nonnull dereferenceable(1) @.str.37, i32 noundef %47)
  %indvars.iv.next.i15 = add nuw nsw i64 %indvars.iv.i13, 1
  %.val16.i = load i32, ptr %38, align 4, !tbaa !37
  %49 = sext i32 %.val16.i to i64
  %50 = icmp slt i64 %indvars.iv.next.i15, %49
  br i1 %50, label %45, label %.critedge2.i, !llvm.loop !98

.critedge2.i:                                     ; preds = %45, %40
  %puts.i = call i32 @puts(ptr nonnull dereferenceable(1) @str.1)
  br label %51

51:                                               ; preds = %.critedge2.i, %.lr.ph24.split.i
  %indvars.iv.next28.i = add nuw nsw i64 %indvars.iv27.i, 1
  %exitcond.not = icmp eq i64 %indvars.iv.next28.i, %36
  br i1 %exitcond.not, label %Vec_WecPrint.exit, label %.lr.ph24.split.i, !llvm.loop !97

Vec_WecPrint.exit:                                ; preds = %51, %Abc_Clock.exit11
  %52 = load i32, ptr %15, align 8, !tbaa !89
  %53 = icmp sgt i32 %52, 0
  br i1 %53, label %.lr.ph.i.i.preheader, label %._crit_edge.i.i

.lr.ph.i.i.preheader:                             ; preds = %Vec_WecPrint.exit
  %54 = zext nneg i32 %52 to i64
  br label %.lr.ph.i.i

.lr.ph.i.i:                                       ; preds = %.lr.ph.i.i.preheader, %58
  %indvars.iv.i.i = phi i64 [ %indvars.iv.next.i.i, %58 ], [ 0, %.lr.ph.i.i.preheader ]
  %55 = getelementptr inbounds nuw %struct.Vec_Int_t_, ptr %.pre.i.i.pre, i64 %indvars.iv.i.i, i32 2
  %56 = load ptr, ptr %55, align 8, !tbaa !36
  %.not15.i.i = icmp eq ptr %56, null
  br i1 %.not15.i.i, label %58, label %57

57:                                               ; preds = %.lr.ph.i.i
  call void @free(ptr noundef nonnull %56) #32
  store ptr null, ptr %55, align 8, !tbaa !36
  br label %58

58:                                               ; preds = %57, %.lr.ph.i.i
  %indvars.iv.next.i.i = add nuw nsw i64 %indvars.iv.i.i, 1
  %exitcond19.not = icmp eq i64 %indvars.iv.next.i.i, %54
  br i1 %exitcond19.not, label %._crit_edge.thread.i.i, label %.lr.ph.i.i, !llvm.loop !99

._crit_edge.i.i:                                  ; preds = %Vec_WecPrint.exit
  %.not.i.i = icmp eq ptr %.pre.i.i.pre, null
  br i1 %.not.i.i, label %Vec_WecFree.exit, label %._crit_edge.thread.i.i

._crit_edge.thread.i.i:                           ; preds = %58, %._crit_edge.i.i
  call void @free(ptr noundef nonnull %.pre.i.i.pre) #32
  br label %Vec_WecFree.exit

Vec_WecFree.exit:                                 ; preds = %._crit_edge.i.i, %._crit_edge.thread.i.i
  call void @free(ptr noundef nonnull %15) #32
  ret void
}